; Function Attrs: nounwind uwtable
define hidden ptr @lexbor_mraw_calloc(ptr nocapture noundef %0, i64 noundef %1) local_unnamed_addr #0 {
  %3 = tail call ptr @lexbor_mraw_alloc(ptr noundef %0, i64 noundef %1)
  %.not = icmp eq ptr %3, null
  br i1 %.not, label %6, label %4

4:                                                ; preds = %2
  %5 = getelementptr i8, ptr %3, i64 -8
  %.val = load i64, ptr %5, align 8
  tail call void @llvm.memset.p0.i64(ptr nonnull align 1 %3, i8 0, i64 %.val, i1 false)
  br label %6

6:                                                ; preds = %4, %2
  ret ptr %3
}